target datalayout = "e-m:e-p270:32:32-p271:32:32-p272:64:64-i64:64-i128:128-f80:128-n8:16:32:64-S128"
target triple = "x86_64-pc-linux-gnu"

%struct.H5VL_loc_params_t = type { i32, i32, %union.anon.7 }
%union.anon.7 = type { %struct.H5VL_loc_by_idx }
%struct.H5VL_loc_by_idx = type { ptr, i32, i32, i64, i64 }

@.str.2 = private unnamed_addr constant [101 x i8] c"generated/home/dtcxzyw/WorkSpace/Projects/compilers/llvm-opt-benchmark/bench/hdf5/hdf5/src/H5VLint.c\00", align 1
@H5E_VOL_g = external global i64, align 8
@H5E_CANTSET_g = external global i64, align 8
@H5E_BADTYPE_g = external global i64, align 8
@.str.94 = private unnamed_addr constant [27 x i8] c"not the correct type of ID\00", align 1
@.str.95 = private unnamed_addr constant [35 x i8] c"can't set collective metadata read\00", align 1
@__func__.H5VL_setup_loc_args = private unnamed_addr constant [20 x i8] c"H5VL_setup_loc_args\00", align 1

; Function Attrs: nounwind uwtable
define i32 @H5VL_setup_loc_args(i64 noundef %0, ptr noundef %1, ptr noundef %2) #0 {
  %4 = alloca i64, align 8
  %5 = alloca ptr, align 8
  %6 = alloca ptr, align 8
  %7 = alloca i32, align 4
  %8 = alloca i8, align 1
  store i64 %0, ptr %4, align 8
  store ptr %1, ptr %5, align 8
  store ptr %2, ptr %6, align 8
  store i32 0, ptr %7, align 4
  store i8 0, ptr %8, align 1
  %9 = load i64, ptr %4, align 8
  %10 = call ptr @H5VL_vol_object(i64 noundef %9)
  %11 = load ptr, ptr %5, align 8
  store ptr %10, ptr %11, align 8
  %12 = icmp eq ptr null, %10
  br i1 %12, label %13, label %28

13:                                               ; preds = %3
  br label %14

14:                                               ; preds = %13
  br label %15

15:                                               ; preds = %14
  br label %16

16:                                               ; preds = %15
  %17 = load i64, ptr @H5E_VOL_g, align 8
  %18 = load i64, ptr @H5E_BADTYPE_g, align 8
  %19 = call i32 (ptr, ptr, i32, i64, i64, ptr, ...) @H5E_printf_stack(ptr noundef @.str.2, ptr noundef @__func__.H5VL_setup_loc_args, i32 noundef 2559, i64 noundef %17, i64 noundef %18, ptr noundef @.str.94)
  br label %20

20:                                               ; preds = %16
  store i8 1, ptr %8, align 1
  %21 = load i8, ptr %8, align 1
  %22 = trunc i8 %21 to i1
  %23 = zext i1 %22 to i8
  store i8 %23, ptr %8, align 1
  br label %24

24:                                               ; preds = %20
  br label %25

25:                                               ; preds = %24
  store i32 -1, ptr %7, align 4
  br label %54

26:                                               ; No predecessors!
  br label %27

27:                                               ; preds = %26
  br label %28

28:                                               ; preds = %27, %3
  %29 = load i64, ptr %4, align 8
  %30 = call i32 @H5CX_set_loc(i64 noundef %29)
  %31 = icmp slt i32 %30, 0
  br i1 %31, label %32, label %47

32:                                               ; preds = %28
  br label %33

33:                                               ; preds = %32
  br label %34

34:                                               ; preds = %33
  br label %35

35:                                               ; preds = %34
  %36 = load i64, ptr @H5E_VOL_g, align 8
  %37 = load i64, ptr @H5E_CANTSET_g, align 8
  %38 = call i32 (ptr, ptr, i32, i64, i64, ptr, ...) @H5E_printf_stack(ptr noundef @.str.2, ptr noundef @__func__.H5VL_setup_loc_args, i32 noundef 2563, i64 noundef %36, i64 noundef %37, ptr noundef @.str.95)
  br label %39

39:                                               ; preds = %35
  store i8 1, ptr %8, align 1
  %40 = load i8, ptr %8, align 1
  %41 = trunc i8 %40 to i1
  %42 = zext i1 %41 to i8
  store i8 %42, ptr %8, align 1
  br label %43

43:                                               ; preds = %39
  br label %44

44:                                               ; preds = %43
  store i32 -1, ptr %7, align 4
  br label %54

45:                                               ; No predecessors!
  br label %46

46:                                               ; preds = %45
  br label %47

47:                                               ; preds = %46, %28
  %48 = load ptr, ptr %6, align 8
  %49 = getelementptr inbounds %struct.H5VL_loc_params_t, ptr %48, i32 0, i32 1
  store i32 0, ptr %49, align 4
  %50 = load i64, ptr %4, align 8
  %51 = call i32 @H5I_get_type(i64 noundef %50)
  %52 = load ptr, ptr %6, align 8
  %53 = getelementptr inbounds %struct.H5VL_loc_params_t, ptr %52, i32 0, i32 0
  store i32 %51, ptr %53, align 8
  br label %54

54:                                               ; preds = %47, %44, %25
  %55 = load i32, ptr %7, align 4
  ret i32 %55
}