; Function Attrs: nounwind uwtable
define range(i32 -1, 1) i32 @H5VL_setup_loc_args(i64 noundef %0, ptr nocapture noundef writeonly %1, ptr nocapture noundef writeonly %2) local_unnamed_addr #0 {
  %4 = tail call ptr @H5VL_vol_object(i64 noundef %0)
  store ptr %4, ptr %1, align 8
  %5 = icmp eq ptr %4, null
  br i1 %5, label %6, label %10

6:                                                ; preds = %3
  %7 = load i64, ptr @H5E_VOL_g, align 8
  %8 = load i64, ptr @H5E_BADTYPE_g, align 8
  %9 = tail call i32 (ptr, ptr, i32, i64, i64, ptr, ...) @H5E_printf_stack(ptr noundef nonnull @.str.2, ptr noundef nonnull @__func__.H5VL_setup_loc_args, i32 noundef 2559, i64 noundef %7, i64 noundef %8, ptr noundef nonnull @.str.94) #10
  br label %20

10:                                               ; preds = %3
  %11 = tail call i32 @H5CX_set_loc(i64 noundef %0) #10
  %12 = icmp slt i32 %11, 0
  br i1 %12, label %13, label %17

13:                                               ; preds = %10
  %14 = load i64, ptr @H5E_VOL_g, align 8
  %15 = load i64, ptr @H5E_CANTSET_g, align 8
  %16 = tail call i32 (ptr, ptr, i32, i64, i64, ptr, ...) @H5E_printf_stack(ptr noundef nonnull @.str.2, ptr noundef nonnull @__func__.H5VL_setup_loc_args, i32 noundef 2563, i64 noundef %14, i64 noundef %15, ptr noundef nonnull @.str.95) #10
  br label %20

17:                                               ; preds = %10
  %18 = getelementptr inbounds i8, ptr %2, i64 4
  store i32 0, ptr %18, align 4
  %19 = tail call i32 @H5I_get_type(i64 noundef %0) #10
  store i32 %19, ptr %2, align 8
  br label %20

20:                                               ; preds = %17, %13, %6
  %.0 = phi i32 [ -1, %6 ], [ -1, %13 ], [ 0, %17 ]
  ret i32 %.0
}